; Function Attrs: mustprogress uwtable
define dso_local noundef ptr @_ZN7testing8internal12UnitTestImpl31GetGlobalTestPartResultReporterEv(ptr noundef nonnull align 8 dereferenceable(713) %0) local_unnamed_addr #3 align 2 personality ptr @__gxx_personality_v0 {
  %2 = getelementptr inbounds nuw i8, ptr %0, i64 88
  tail call void @_ZN7testing8internal9MutexBase4LockEv(ptr noundef nonnull align 8 dereferenceable(56) %2)
  %3 = getelementptr inbounds nuw i8, ptr %0, i64 80
  %4 = load ptr, ptr %3, align 8, !tbaa !677
  invoke void @_ZN7testing8internal9MutexBase6UnlockEv(ptr noundef nonnull align 8 dereferenceable(56) %2)
          to label %_ZN7testing8internal14GTestMutexLockD2Ev.exit unwind label %5

5:                                                ; preds = %1
  %6 = landingpad { ptr, i32 }
          catch ptr null
  %7 = extractvalue { ptr, i32 } %6, 0
  tail call void @__clang_call_terminate(ptr %7) #63
  unreachable

_ZN7testing8internal14GTestMutexLockD2Ev.exit:    ; preds = %1
  ret ptr %4
}